
There are no discarded input sections

Memory Configuration

Name             Origin             Length             Attributes
flash            0x08000000         0x00100000         xr
sram             0x20000000         0x0001c000         xrw
*default*        0x00000000         0xffffffff

Linker script and memory map

LOAD CMakeFiles/firmware.elf.dir/kernel/src/main.c.o
LOAD CMakeFiles/firmware.elf.dir/kernel/src/startup.c.o
LOAD CMakeFiles/firmware.elf.dir/kernel/src/mpu.c.o
LOAD CMakeFiles/firmware.elf.dir/kernel/src/system_calls.c.o
LOAD CMakeFiles/firmware.elf.dir/drivers/src/systick.c.o
LOAD CMakeFiles/firmware.elf.dir/drivers/src/uart.c.o
LOAD CMakeFiles/firmware.elf.dir/drivers/src/gpio.c.o
LOAD CMakeFiles/firmware.elf.dir/drivers/src/rcc.c.o
LOAD CMakeFiles/firmware.elf.dir/drivers/src/vector.c.o
LOAD CMakeFiles/firmware.elf.dir/drivers/src/ringbuffer.c.o
                0x2001c000                        _estack = (ORIGIN (sram) + LENGTH (sram))

.vectors        0x08000000      0x188
 *(.vectors)
 .vectors       0x08000000      0x188 CMakeFiles/firmware.elf.dir/kernel/src/startup.c.o
                0x08000000                vector_table

.text           0x08000188     0x1074
 *(.text*)
 .text          0x08000188      0x748 CMakeFiles/firmware.elf.dir/kernel/src/main.c.o
                0x08000188                echo
                0x080001e4                length
                0x08000212                clock_init
                0x08000236                __get_CONTROL
                0x0800024e                __set__CONTROL_PRIVILEGE_LEVEL
                0x08000284                __set__CONTROL_STACK_POINTER
                0x080002ba                __set__CONTROL_FPU
                0x080002f0                __get__CONTROL_PRIVILEGE_LEVEL
                0x0800030e                __get__CONTROL_STACK_POINTER
                0x0800032e                __get__CONTROL_FPU
                0x0800034e                __get_MSP
                0x08000366                __set_MSP
                0x0800037e                __get_PSP
                0x08000396                __set_PSP
                0x080003ae                nmi_handler
                0x080003c8                hard_fault_handler
                0x080003e4                osEnableProcessorFaults
                0x08000424                pend_sv_handler
                0x0800044e                osSwitchSPToPSP
                0x08000468                osGetPSPValue
                0x08000488                osSavePSPValue
                0x080004b0                osGetNextTask
                0x0800051c                osInitalieTCK
                0x08000554                osCreateThread
                0x08000634                osDeleteThread
                0x08000668                sys_tick_handler
                0x080006f4                systick_get_ticks
                0x0800070c                osDelay
                0x08000768                task1
                0x080007bc                task2
                0x08000810                idleTask
                0x08000840                main
 .text          0x080008d0       0x60 CMakeFiles/firmware.elf.dir/kernel/src/startup.c.o
                0x080008d0                _reset
 .text          0x08000930      0x120 CMakeFiles/firmware.elf.dir/kernel/src/mpu.c.o
                0x08000930                mem_manage_handler
                0x080009d4                mpu_enable
                0x080009f0                mpu_disable
                0x08000a28                mpu_init
 .text          0x08000a50       0xdc CMakeFiles/firmware.elf.dir/kernel/src/system_calls.c.o
                0x08000a50                sv_call_handler
                0x08000ad8                chuj
                0x08000afc                usart_syscall_write
                0x08000b12                usart_syscall_read
 .text          0x08000b2c       0x40 CMakeFiles/firmware.elf.dir/drivers/src/systick.c.o
                0x08000b2c                systick_init
 .text          0x08000b6c      0x320 CMakeFiles/firmware.elf.dir/drivers/src/uart.c.o
                0x08000b6c                uart_init
                0x08000ce8                usart1_isr
                0x08000d24                usart2_isr
                0x08000d60                usart3_isr
                0x08000d9c                usart_write
                0x08000dd6                usart_write_byte
                0x08000e04                usart_read
                0x08000e58                usart_data_available
 .text          0x08000e8c      0x154 CMakeFiles/firmware.elf.dir/drivers/src/gpio.c.o
                0x08000e8c                gpio_set_mode
                0x08000f04                gpio_set_af
                0x08000f9c                gpio_write
 .text          0x08000fe0      0x118 CMakeFiles/firmware.elf.dir/drivers/src/rcc.c.o
                0x08000fe0                rcc_gpioa_enable
                0x08000ffc                rcc_gpioa_disable
                0x08001018                rcc_usart2_enable
                0x08001034                rcc_usart3_enable
                0x08001050                rcc_usart2_disable
                0x0800106c                rcc_usart3_disable
                0x08001088                rcc_usart1_enable
                0x080010a4                rcc_syscfg_enable
                0x080010c0                rcc_syscfg_disable
                0x080010dc                rcc_usart1_disable
 .text          0x080010f8       0x14 CMakeFiles/firmware.elf.dir/drivers/src/vector.c.o
                0x080010f8                dma2_stream1_isr
                0x080010f8                tim8_brk_tim12_isr
                0x080010f8                dma1_stream7_isr
                0x080010f8                tim7_isr
                0x080010f8                dma1_stream2_isr
                0x080010f8                otg_hs_isr
                0x080010f8                blocking_handler
                0x080010f8                tim5_isr
                0x080010f8                rtc_wkup_isr
                0x080010f8                otg_fs_isr
                0x080010f8                spi1_isr
                0x080010f8                i2c3_er_isr
                0x080010f8                exti2_isr
                0x080010f8                tim1_brk__tim9_isr
                0x080010f8                tamp_stamp_isr
                0x080010f8                can1_rx1_isr
                0x080010f8                dma2_stream0_isr
                0x080010f8                i2c3_ev_isr
                0x080010f8                can2_rx0_isr
                0x080010f8                dma1_stream6_isr
                0x080010f8                can2_rx1_isr
                0x080010f8                can1_sce_isr
                0x080010f8                tim1_cc_isr
                0x080010f8                can1_tx_isr
                0x080010f8                sdio_isr
                0x080010f8                eth_isr
                0x080010f8                otg_fs_wkup_isr
                0x080010f8                dma2_stream5_isr
                0x080010f8                pvd_isr
                0x080010f8                can1_rx0_isr
                0x080010f8                rcc_isr
                0x080010f8                dma2_stream3_isr
                0x080010f8                flash_isr
                0x080010f8                uart4_isr
                0x080010f8                rtc_alarm_isr
                0x080010f8                exti15_10_isr
                0x080010f8                hash_rng_isr
                0x080010f8                tim1_trg_com_tim11_isr
                0x080010f8                exti1_isr
                0x080010f8                i2c1_ev_isr
                0x080010f8                usart6_isr
                0x080010f8                spi2_isr
                0x080010f8                cryp_isr
                0x080010f8                dma1_stream1_isr
                0x080010f8                dma2_stream4_isr
                0x080010f8                exti3_isr
                0x080010f8                tim3_isr
                0x080010f8                fpu_isr
                0x080010f8                dma1_stream4_isr
                0x080010f8                i2c2_er_isr
                0x080010f8                i2c2_ev_isr
                0x080010f8                uart5_isr
                0x080010f8                dma2_stream6_isr
                0x080010f8                adc_isr
                0x080010f8                dma2_stream7_isr
                0x080010f8                tim8_up_tim13_isr
                0x080010f8                fsmc_isr
                0x080010f8                exti4_isr
                0x080010f8                tim6_dac_isr
                0x080010f8                dma1_stream3_isr
                0x080010f8                tim8_trg_com_tim14_isr
                0x080010f8                can2_tx_isr
                0x080010f8                exti9_5_isr
                0x080010f8                tim1_up__tim10_isr
                0x080010f8                can2_sce_isr
                0x080010f8                tim4_isr
                0x080010f8                otg_hs_wkup_isr
                0x080010f8                i2c1_er_isr
                0x080010f8                dma1_stream0_isr
                0x080010f8                tim8_cc_isr
                0x080010f8                dcmi_isr
                0x080010f8                dma2_stream2_isr
                0x080010f8                eth_wkup_isr
                0x080010f8                wwdg_isr
                0x080010f8                otg_hs_ep1_out_isr
                0x080010f8                spi3_isr
                0x080010f8                dma1_stream5_isr
                0x080010f8                otg_hs_ep1_in_isr
                0x080010f8                tim2_isr
                0x080010f8                exti0_isr
                0x08001100                null_handler
 .text          0x0800110c       0xf0 CMakeFiles/firmware.elf.dir/drivers/src/ringbuffer.c.o
                0x0800110c                ringbuffer_init
                0x0800113c                ringbuffer_empty
                0x08001160                ringbuffer_read
                0x080011ae                ringbuffer_write

.glue_7         0x080011fc        0x0
 .glue_7        0x080011fc        0x0 linker stubs

.glue_7t        0x080011fc        0x0
 .glue_7t       0x080011fc        0x0 linker stubs

.vfp11_veneer   0x080011fc        0x0
 .vfp11_veneer  0x080011fc        0x0 linker stubs

.v4_bx          0x080011fc        0x0
 .v4_bx         0x080011fc        0x0 linker stubs

.iplt           0x080011fc        0x0
 .iplt          0x080011fc        0x0 CMakeFiles/firmware.elf.dir/kernel/src/main.c.o

.rodata         0x080011fc       0xdd
 *(.rodata*)
 .rodata        0x080011fc       0x3b CMakeFiles/firmware.elf.dir/kernel/src/main.c.o
 *fill*         0x08001237        0x1 
 .rodata        0x08001238       0xa1 CMakeFiles/firmware.elf.dir/kernel/src/mpu.c.o

.rel.dyn        0x080012dc        0x0
 .rel.iplt      0x080012dc        0x0 CMakeFiles/firmware.elf.dir/kernel/src/main.c.o

.data           0x20000000       0x2c load address 0x080012d9
                0x20000000                        _sdata = .
 *(.first_data)
 *(.data SORT_BY_NAME(.data.*))
 .data          0x20000000       0x2c CMakeFiles/firmware.elf.dir/kernel/src/main.c.o
                0x20000014                uart1
                0x2000001c                uart2
                0x20000024                uart3
 .data          0x2000002c        0x0 CMakeFiles/firmware.elf.dir/kernel/src/startup.c.o
 .data          0x2000002c        0x0 CMakeFiles/firmware.elf.dir/kernel/src/mpu.c.o
 .data          0x2000002c        0x0 CMakeFiles/firmware.elf.dir/kernel/src/system_calls.c.o
 .data          0x2000002c        0x0 CMakeFiles/firmware.elf.dir/drivers/src/systick.c.o
 .data          0x2000002c        0x0 CMakeFiles/firmware.elf.dir/drivers/src/uart.c.o
 .data          0x2000002c        0x0 CMakeFiles/firmware.elf.dir/drivers/src/gpio.c.o
 .data          0x2000002c        0x0 CMakeFiles/firmware.elf.dir/drivers/src/rcc.c.o
 .data          0x2000002c        0x0 CMakeFiles/firmware.elf.dir/drivers/src/vector.c.o
 .data          0x2000002c        0x0 CMakeFiles/firmware.elf.dir/drivers/src/ringbuffer.c.o
                0x2000002c                        _edata = .
                0x080012d9                        _sidata = LOADADDR (.data)

.igot.plt       0x2000002c        0x0 load address 0x08001305
 .igot.plt      0x2000002c        0x0 CMakeFiles/firmware.elf.dir/kernel/src/main.c.o

.bss            0x20000030      0x228 load address 0x08001305
                0x20000030                        _sbss = .
 *(.bss SORT_BY_NAME(.bss.*) COMMON)
 .bss           0x20000030       0xb8 CMakeFiles/firmware.elf.dir/kernel/src/main.c.o
                0x20000030                osTaskControlBlock
                0x200000d0                osCurrentTaks
 .bss           0x200000e8        0x0 CMakeFiles/firmware.elf.dir/kernel/src/startup.c.o
 .bss           0x200000e8        0x0 CMakeFiles/firmware.elf.dir/kernel/src/mpu.c.o
 .bss           0x200000e8        0x0 CMakeFiles/firmware.elf.dir/kernel/src/system_calls.c.o
 .bss           0x200000e8        0x0 CMakeFiles/firmware.elf.dir/drivers/src/systick.c.o
 .bss           0x200000e8      0x170 CMakeFiles/firmware.elf.dir/drivers/src/uart.c.o
 .bss           0x20000258        0x0 CMakeFiles/firmware.elf.dir/drivers/src/gpio.c.o
 .bss           0x20000258        0x0 CMakeFiles/firmware.elf.dir/drivers/src/rcc.c.o
 .bss           0x20000258        0x0 CMakeFiles/firmware.elf.dir/drivers/src/vector.c.o
 .bss           0x20000258        0x0 CMakeFiles/firmware.elf.dir/drivers/src/ringbuffer.c.o
                0x20000258                        _ebss = .
                0x20000258                        . = ALIGN (0x8)
                0x20000258                        _end = .
OUTPUT(firmware.elf elf32-littlearm)
LOAD linker stubs

.debug_info     0x00000000     0x226a
 .debug_info    0x00000000      0x9ac CMakeFiles/firmware.elf.dir/kernel/src/main.c.o
 .debug_info    0x000009ac      0x3f4 CMakeFiles/firmware.elf.dir/kernel/src/startup.c.o
 .debug_info    0x00000da0      0x360 CMakeFiles/firmware.elf.dir/kernel/src/mpu.c.o
 .debug_info    0x00001100      0x322 CMakeFiles/firmware.elf.dir/kernel/src/system_calls.c.o
 .debug_info    0x00001422       0xe4 CMakeFiles/firmware.elf.dir/drivers/src/systick.c.o
 .debug_info    0x00001506      0x4af CMakeFiles/firmware.elf.dir/drivers/src/uart.c.o
 .debug_info    0x000019b5      0x3d8 CMakeFiles/firmware.elf.dir/drivers/src/gpio.c.o
 .debug_info    0x00001d8d      0x2a8 CMakeFiles/firmware.elf.dir/drivers/src/rcc.c.o
 .debug_info    0x00002035       0x4e CMakeFiles/firmware.elf.dir/drivers/src/vector.c.o
 .debug_info    0x00002083      0x1e7 CMakeFiles/firmware.elf.dir/drivers/src/ringbuffer.c.o

.debug_abbrev   0x00000000      0xbd7
 .debug_abbrev  0x00000000      0x2e9 CMakeFiles/firmware.elf.dir/kernel/src/main.c.o
 .debug_abbrev  0x000002e9      0x127 CMakeFiles/firmware.elf.dir/kernel/src/startup.c.o
 .debug_abbrev  0x00000410      0x139 CMakeFiles/firmware.elf.dir/kernel/src/mpu.c.o
 .debug_abbrev  0x00000549      0x16d CMakeFiles/firmware.elf.dir/kernel/src/system_calls.c.o
 .debug_abbrev  0x000006b6       0xb2 CMakeFiles/firmware.elf.dir/drivers/src/systick.c.o
 .debug_abbrev  0x00000768      0x197 CMakeFiles/firmware.elf.dir/drivers/src/uart.c.o
 .debug_abbrev  0x000008ff      0x126 CMakeFiles/firmware.elf.dir/drivers/src/gpio.c.o
 .debug_abbrev  0x00000a25       0xa2 CMakeFiles/firmware.elf.dir/drivers/src/rcc.c.o
 .debug_abbrev  0x00000ac7       0x3a CMakeFiles/firmware.elf.dir/drivers/src/vector.c.o
 .debug_abbrev  0x00000b01       0xd6 CMakeFiles/firmware.elf.dir/drivers/src/ringbuffer.c.o

.debug_aranges  0x00000000      0x140
 .debug_aranges
                0x00000000       0x20 CMakeFiles/firmware.elf.dir/kernel/src/main.c.o
 .debug_aranges
                0x00000020       0x20 CMakeFiles/firmware.elf.dir/kernel/src/startup.c.o
 .debug_aranges
                0x00000040       0x20 CMakeFiles/firmware.elf.dir/kernel/src/mpu.c.o
 .debug_aranges
                0x00000060       0x20 CMakeFiles/firmware.elf.dir/kernel/src/system_calls.c.o
 .debug_aranges
                0x00000080       0x20 CMakeFiles/firmware.elf.dir/drivers/src/systick.c.o
 .debug_aranges
                0x000000a0       0x20 CMakeFiles/firmware.elf.dir/drivers/src/uart.c.o
 .debug_aranges
                0x000000c0       0x20 CMakeFiles/firmware.elf.dir/drivers/src/gpio.c.o
 .debug_aranges
                0x000000e0       0x20 CMakeFiles/firmware.elf.dir/drivers/src/rcc.c.o
 .debug_aranges
                0x00000100       0x20 CMakeFiles/firmware.elf.dir/drivers/src/vector.c.o
 .debug_aranges
                0x00000120       0x20 CMakeFiles/firmware.elf.dir/drivers/src/ringbuffer.c.o

.debug_rnglists
                0x00000000       0x17
 .debug_rnglists
                0x00000000       0x17 CMakeFiles/firmware.elf.dir/kernel/src/main.c.o

.debug_line     0x00000000     0x1143
 .debug_line    0x00000000      0x469 CMakeFiles/firmware.elf.dir/kernel/src/main.c.o
 .debug_line    0x00000469       0xfd CMakeFiles/firmware.elf.dir/kernel/src/startup.c.o
 .debug_line    0x00000566      0x1d6 CMakeFiles/firmware.elf.dir/kernel/src/mpu.c.o
 .debug_line    0x0000073c      0x16a CMakeFiles/firmware.elf.dir/kernel/src/system_calls.c.o
 .debug_line    0x000008a6      0x12b CMakeFiles/firmware.elf.dir/drivers/src/systick.c.o
 .debug_line    0x000009d1      0x28f CMakeFiles/firmware.elf.dir/drivers/src/uart.c.o
 .debug_line    0x00000c60      0x19b CMakeFiles/firmware.elf.dir/drivers/src/gpio.c.o
 .debug_line    0x00000dfb      0x159 CMakeFiles/firmware.elf.dir/drivers/src/rcc.c.o
 .debug_line    0x00000f54       0x80 CMakeFiles/firmware.elf.dir/drivers/src/vector.c.o
 .debug_line    0x00000fd4      0x16f CMakeFiles/firmware.elf.dir/drivers/src/ringbuffer.c.o

.debug_str      0x00000000     0x1177
 .debug_str     0x00000000     0x1177 CMakeFiles/firmware.elf.dir/kernel/src/main.c.o
                                0x655 (size before relaxing)
 .debug_str     0x00001177      0x641 CMakeFiles/firmware.elf.dir/kernel/src/startup.c.o
 .debug_str     0x00001177      0x290 CMakeFiles/firmware.elf.dir/kernel/src/mpu.c.o
 .debug_str     0x00001177      0x28c CMakeFiles/firmware.elf.dir/kernel/src/system_calls.c.o
 .debug_str     0x00001177      0x1a7 CMakeFiles/firmware.elf.dir/drivers/src/systick.c.o
 .debug_str     0x00001177      0x35d CMakeFiles/firmware.elf.dir/drivers/src/uart.c.o
 .debug_str     0x00001177      0x307 CMakeFiles/firmware.elf.dir/drivers/src/gpio.c.o
 .debug_str     0x00001177      0x30d CMakeFiles/firmware.elf.dir/drivers/src/rcc.c.o
 .debug_str     0x00001177      0x107 CMakeFiles/firmware.elf.dir/drivers/src/vector.c.o
 .debug_str     0x00001177      0x221 CMakeFiles/firmware.elf.dir/drivers/src/ringbuffer.c.o

.comment        0x00000000       0x26
 .comment       0x00000000       0x26 CMakeFiles/firmware.elf.dir/kernel/src/main.c.o
                                 0x27 (size before relaxing)
 .comment       0x00000026       0x27 CMakeFiles/firmware.elf.dir/kernel/src/startup.c.o
 .comment       0x00000026       0x27 CMakeFiles/firmware.elf.dir/kernel/src/mpu.c.o
 .comment       0x00000026       0x27 CMakeFiles/firmware.elf.dir/kernel/src/system_calls.c.o
 .comment       0x00000026       0x27 CMakeFiles/firmware.elf.dir/drivers/src/systick.c.o
 .comment       0x00000026       0x27 CMakeFiles/firmware.elf.dir/drivers/src/uart.c.o
 .comment       0x00000026       0x27 CMakeFiles/firmware.elf.dir/drivers/src/gpio.c.o
 .comment       0x00000026       0x27 CMakeFiles/firmware.elf.dir/drivers/src/rcc.c.o
 .comment       0x00000026       0x27 CMakeFiles/firmware.elf.dir/drivers/src/vector.c.o
 .comment       0x00000026       0x27 CMakeFiles/firmware.elf.dir/drivers/src/ringbuffer.c.o

.ARM.attributes
                0x00000000       0x2e
 .ARM.attributes
                0x00000000       0x2e CMakeFiles/firmware.elf.dir/kernel/src/main.c.o
 .ARM.attributes
                0x0000002e       0x2e CMakeFiles/firmware.elf.dir/kernel/src/startup.c.o
 .ARM.attributes
                0x0000005c       0x2e CMakeFiles/firmware.elf.dir/kernel/src/mpu.c.o
 .ARM.attributes
                0x0000008a       0x2e CMakeFiles/firmware.elf.dir/kernel/src/system_calls.c.o
 .ARM.attributes
                0x000000b8       0x2e CMakeFiles/firmware.elf.dir/drivers/src/systick.c.o
 .ARM.attributes
                0x000000e6       0x2e CMakeFiles/firmware.elf.dir/drivers/src/uart.c.o
 .ARM.attributes
                0x00000114       0x2e CMakeFiles/firmware.elf.dir/drivers/src/gpio.c.o
 .ARM.attributes
                0x00000142       0x2e CMakeFiles/firmware.elf.dir/drivers/src/rcc.c.o
 .ARM.attributes
                0x00000170       0x2e CMakeFiles/firmware.elf.dir/drivers/src/vector.c.o
 .ARM.attributes
                0x0000019e       0x2e CMakeFiles/firmware.elf.dir/drivers/src/ringbuffer.c.o

.debug_frame    0x00000000      0xa78
 .debug_frame   0x00000000      0x488 CMakeFiles/firmware.elf.dir/kernel/src/main.c.o
 .debug_frame   0x00000488       0x30 CMakeFiles/firmware.elf.dir/kernel/src/startup.c.o
 .debug_frame   0x000004b8       0xcc CMakeFiles/firmware.elf.dir/kernel/src/mpu.c.o
 .debug_frame   0x00000584       0xbc CMakeFiles/firmware.elf.dir/kernel/src/system_calls.c.o
 .debug_frame   0x00000640       0x34 CMakeFiles/firmware.elf.dir/drivers/src/systick.c.o
 .debug_frame   0x00000674      0x134 CMakeFiles/firmware.elf.dir/drivers/src/uart.c.o
 .debug_frame   0x000007a8       0x88 CMakeFiles/firmware.elf.dir/drivers/src/gpio.c.o
 .debug_frame   0x00000830      0x150 CMakeFiles/firmware.elf.dir/drivers/src/rcc.c.o
 .debug_frame   0x00000980       0x48 CMakeFiles/firmware.elf.dir/drivers/src/vector.c.o
 .debug_frame   0x000009c8       0xb0 CMakeFiles/firmware.elf.dir/drivers/src/ringbuffer.c.o
